target datalayout = "e-m:e-p270:32:32-p271:32:32-p272:64:64-i64:64-i128:128-f80:128-n8:16:32:64-S128"
target triple = "x86_64-pc-linux-gnu"

%struct.VHeader_ = type { i32, i32, [0 x i8] }

@debug_log = external global i8, align 1
@.str.3 = private unnamed_addr constant [10 x i8] c"-- INFO: \00", align 1
@.str.6 = private unnamed_addr constant [2 x i8] c"\0A\00", align 1
@.str.134 = private unnamed_addr constant [28 x i8] c"Searching for sources in %s\00", align 1
@.str.135 = private unnamed_addr constant [37 x i8] c"Searching for wildcard sources in %s\00", align 1
@.str.136 = private unnamed_addr constant [96 x i8] c"File names must be a non-empty name followed by %s or they cannot be compiled: '%s' is invalid.\00", align 1

; Function Attrs: nounwind uwtable
define internal ptr @vec_new_(i64 noundef %0, i64 noundef %1) #0 {
  %3 = alloca i64, align 8
  %4 = alloca i64, align 8
  %5 = alloca ptr, align 8
  store i64 %0, ptr %3, align 8
  store i64 %1, ptr %4, align 8
  %6 = load i64, ptr %3, align 8
  %7 = load i64, ptr %4, align 8
  %8 = mul i64 %6, %7
  %9 = add i64 %8, 8
  %10 = call ptr @calloc_arena(i64 noundef %9)
  store ptr %10, ptr %5, align 8
  %11 = load i64, ptr %4, align 8
  %12 = trunc i64 %11 to i32
  %13 = load ptr, ptr %5, align 8
  %14 = getelementptr inbounds %struct.VHeader_, ptr %13, i32 0, i32 1
  store i32 %12, ptr %14, align 4
  %15 = load ptr, ptr %5, align 8
  ret ptr %15
}

; Function Attrs: nounwind uwtable
define internal ptr @expand_(ptr noundef %0, i64 noundef %1) #0 {
  %3 = alloca ptr, align 8
  %4 = alloca i64, align 8
  %5 = alloca ptr, align 8
  %6 = alloca ptr, align 8
  %7 = alloca i64, align 8
  store ptr %0, ptr %3, align 8
  store i64 %1, ptr %4, align 8
  %8 = load ptr, ptr %3, align 8
  %9 = icmp ne ptr %8, null
  br i1 %9, label %13, label %10

10:                                               ; preds = %2
  %11 = load i64, ptr %4, align 8
  %12 = call ptr @vec_new_(i64 noundef %11, i64 noundef 8)
  store ptr %12, ptr %5, align 8
  br label %16

13:                                               ; preds = %2
  %14 = load ptr, ptr %3, align 8
  %15 = getelementptr inbounds %struct.VHeader_, ptr %14, i64 -1
  store ptr %15, ptr %5, align 8
  br label %16

16:                                               ; preds = %13, %10
  %17 = load ptr, ptr %5, align 8
  %18 = getelementptr inbounds %struct.VHeader_, ptr %17, i32 0, i32 0
  %19 = load i32, ptr %18, align 4
  %20 = load ptr, ptr %5, align 8
  %21 = getelementptr inbounds %struct.VHeader_, ptr %20, i32 0, i32 1
  %22 = load i32, ptr %21, align 4
  %23 = icmp eq i32 %19, %22
  br i1 %23, label %24, label %49

24:                                               ; preds = %16
  %25 = load i64, ptr %4, align 8
  %26 = load ptr, ptr %5, align 8
  %27 = getelementptr inbounds %struct.VHeader_, ptr %26, i32 0, i32 1
  %28 = load i32, ptr %27, align 4
  %29 = shl i32 %28, 1
  %30 = zext i32 %29 to i64
  %31 = call ptr @vec_new_(i64 noundef %25, i64 noundef %30)
  store ptr %31, ptr %6, align 8
  %32 = load i64, ptr %4, align 8
  %33 = load ptr, ptr %5, align 8
  %34 = getelementptr inbounds %struct.VHeader_, ptr %33, i32 0, i32 1
  %35 = load i32, ptr %34, align 4
  %36 = zext i32 %35 to i64
  %37 = mul i64 %32, %36
  %38 = add i64 %37, 8
  store i64 %38, ptr %7, align 8
  %39 = load ptr, ptr %6, align 8
  %40 = load ptr, ptr %5, align 8
  %41 = load i64, ptr %7, align 8
  call void @llvm.memcpy.p0.p0.i64(ptr align 4 %39, ptr align 4 %40, i64 %41, i1 false)
  %42 = load ptr, ptr %6, align 8
  store ptr %42, ptr %5, align 8
  %43 = load ptr, ptr %5, align 8
  %44 = getelementptr inbounds %struct.VHeader_, ptr %43, i32 0, i32 1
  %45 = load i32, ptr %44, align 4
  %46 = shl i32 %45, 1
  %47 = load ptr, ptr %6, align 8
  %48 = getelementptr inbounds %struct.VHeader_, ptr %47, i32 0, i32 1
  store i32 %46, ptr %48, align 4
  br label %49

49:                                               ; preds = %24, %16
  %50 = load ptr, ptr %5, align 8
  %51 = getelementptr inbounds %struct.VHeader_, ptr %50, i32 0, i32 0
  %52 = load i32, ptr %51, align 4
  %53 = add i32 %52, 1
  store i32 %53, ptr %51, align 4
  %54 = load ptr, ptr %5, align 8
  %55 = getelementptr inbounds %struct.VHeader_, ptr %54, i64 1
  ret ptr %55
}

; Function Attrs: nounwind uwtable
define internal ptr @target_expand_source_names(ptr noundef %0, ptr noundef %1, i32 noundef %2, i1 noundef zeroext %3) #0 {
  %5 = alloca i32, align 4
  %6 = alloca ptr, align 8
  %7 = alloca ptr, align 8
  %8 = alloca i32, align 4
  %9 = alloca ptr, align 8
  %10 = alloca ptr, align 8
  %11 = alloca ptr, align 8
  %12 = alloca ptr, align 8
  %13 = alloca i32, align 4
  %14 = alloca i8, align 1
  %15 = alloca ptr, align 8
  %16 = alloca i32, align 4
  %17 = alloca i32, align 4
  %18 = alloca ptr, align 8
  %19 = alloca i64, align 8
  %20 = alloca ptr, align 8
  %21 = alloca ptr, align 8
  %22 = alloca ptr, align 8
  store ptr %0, ptr %11, align 8
  store ptr %1, ptr %12, align 8
  store i32 %2, ptr %13, align 4
  %23 = zext i1 %3 to i8
  store i8 %23, ptr %14, align 1
  store ptr null, ptr %15, align 8
  store i32 0, ptr %16, align 4
  %24 = load ptr, ptr %11, align 8
  store ptr %24, ptr %6, align 8
  %25 = load ptr, ptr %6, align 8
  %26 = icmp ne ptr %25, null
  br i1 %26, label %28, label %27

27:                                               ; preds = %4
  store i32 0, ptr %5, align 4
  br label %33

28:                                               ; preds = %4
  %29 = load ptr, ptr %6, align 8
  store ptr %29, ptr %7, align 8
  %30 = load ptr, ptr %7, align 8
  %31 = getelementptr inbounds %struct.VHeader_, ptr %30, i64 -1
  %32 = load i32, ptr %31, align 4
  store i32 %32, ptr %5, align 4
  br label %33

33:                                               ; preds = %28, %27
  %34 = load i32, ptr %5, align 4
  store i32 %34, ptr %17, align 4
  br label %35

35:                                               ; preds = %174, %33
  %36 = load i32, ptr %16, align 4
  %37 = load i32, ptr %17, align 4
  %38 = icmp ult i32 %36, %37
  br i1 %38, label %39, label %177

39:                                               ; preds = %35
  %40 = load ptr, ptr %11, align 8
  %41 = load i32, ptr %16, align 4
  %42 = zext i32 %41 to i64
  %43 = getelementptr inbounds ptr, ptr %40, i64 %42
  %44 = load ptr, ptr %43, align 8
  store ptr %44, ptr %18, align 8
  br label %45

45:                                               ; preds = %39
  %46 = load i8, ptr @debug_log, align 1
  %47 = trunc i8 %46 to i1
  br i1 %47, label %49, label %48

48:                                               ; preds = %45
  br label %54

49:                                               ; preds = %45
  %50 = call i32 (ptr, ...) @printf(ptr noundef @.str.3)
  %51 = load ptr, ptr %18, align 8
  %52 = call i32 (ptr, ...) @printf(ptr noundef @.str.134, ptr noundef %51)
  %53 = call i32 (ptr, ...) @printf(ptr noundef @.str.6)
  br label %54

54:                                               ; preds = %49, %48
  %55 = load ptr, ptr %18, align 8
  %56 = call i64 @strlen(ptr noundef %55) #10
  store i64 %56, ptr %19, align 8
  %57 = load i64, ptr %19, align 8
  %58 = icmp ult i64 %57, 1
  br i1 %58, label %59, label %60

59:                                               ; preds = %54
  br label %158

60:                                               ; preds = %54
  %61 = load ptr, ptr %18, align 8
  %62 = load i64, ptr %19, align 8
  %63 = sub i64 %62, 1
  %64 = getelementptr inbounds i8, ptr %61, i64 %63
  %65 = load i8, ptr %64, align 1
  %66 = sext i8 %65 to i32
  %67 = icmp eq i32 %66, 42
  br i1 %67, label %68, label %128

68:                                               ; preds = %60
  %69 = load i64, ptr %19, align 8
  %70 = icmp eq i64 %69, 1
  br i1 %70, label %79, label %71

71:                                               ; preds = %68
  %72 = load ptr, ptr %18, align 8
  %73 = load i64, ptr %19, align 8
  %74 = sub i64 %73, 2
  %75 = getelementptr inbounds i8, ptr %72, i64 %74
  %76 = load i8, ptr %75, align 1
  %77 = sext i8 %76 to i32
  %78 = icmp eq i32 %77, 47
  br i1 %78, label %79, label %87

79:                                               ; preds = %71, %68
  %80 = load ptr, ptr %18, align 8
  %81 = load i64, ptr %19, align 8
  %82 = sub i64 %81, 1
  %83 = call ptr @str_copy(ptr noundef %80, i64 noundef %82)
  store ptr %83, ptr %20, align 8
  %84 = load ptr, ptr %20, align 8
  %85 = load ptr, ptr %12, align 8
  %86 = load i32, ptr %13, align 4
  call void @file_add_wildcard_files(ptr noundef %15, ptr noundef %84, i1 noundef zeroext false, ptr noundef %85, i32 noundef %86)
  br label %174

87:                                               ; preds = %71
  %88 = load ptr, ptr %18, align 8
  %89 = load i64, ptr %19, align 8
  %90 = sub i64 %89, 2
  %91 = getelementptr inbounds i8, ptr %88, i64 %90
  %92 = load i8, ptr %91, align 1
  %93 = sext i8 %92 to i32
  %94 = icmp ne i32 %93, 42
  br i1 %94, label %95, label %96

95:                                               ; preds = %87
  br label %158

96:                                               ; preds = %87
  br label %97

97:                                               ; preds = %96
  %98 = load i8, ptr @debug_log, align 1
  %99 = trunc i8 %98 to i1
  br i1 %99, label %101, label %100

100:                                              ; preds = %97
  br label %106

101:                                              ; preds = %97
  %102 = call i32 (ptr, ...) @printf(ptr noundef @.str.3)
  %103 = load ptr, ptr %18, align 8
  %104 = call i32 (ptr, ...) @printf(ptr noundef @.str.135, ptr noundef %103)
  %105 = call i32 (ptr, ...) @printf(ptr noundef @.str.6)
  br label %106

106:                                              ; preds = %101, %100
  %107 = load i64, ptr %19, align 8
  %108 = icmp eq i64 %107, 2
  br i1 %108, label %117, label %109

109:                                              ; preds = %106
  %110 = load ptr, ptr %18, align 8
  %111 = load i64, ptr %19, align 8
  %112 = sub i64 %111, 3
  %113 = getelementptr inbounds i8, ptr %110, i64 %112
  %114 = load i8, ptr %113, align 1
  %115 = sext i8 %114 to i32
  %116 = icmp eq i32 %115, 47
  br i1 %116, label %117, label %127

117:                                              ; preds = %109, %106
  %118 = load ptr, ptr %18, align 8
  %119 = load i64, ptr %19, align 8
  %120 = sub i64 %119, 2
  %121 = call ptr @str_copy(ptr noundef %118, i64 noundef %120)
  store ptr %121, ptr %21, align 8
  br label %122

122:                                              ; preds = %117
  br label %123

123:                                              ; preds = %122
  %124 = load ptr, ptr %21, align 8
  %125 = load ptr, ptr %12, align 8
  %126 = load i32, ptr %13, align 4
  call void @file_add_wildcard_files(ptr noundef %15, ptr noundef %124, i1 noundef zeroext true, ptr noundef %125, i32 noundef %126)
  br label %174

127:                                              ; preds = %109
  br label %158

128:                                              ; preds = %60
  %129 = load ptr, ptr %18, align 8
  %130 = load i64, ptr %19, align 8
  %131 = trunc i64 %130 to i32
  %132 = load ptr, ptr %12, align 8
  %133 = load i32, ptr %13, align 4
  %134 = call zeroext i1 @file_has_suffix_in_list(ptr noundef %129, i32 noundef %131, ptr noundef %132, i32 noundef %133)
  br i1 %134, label %136, label %135

135:                                              ; preds = %128
  br label %158

136:                                              ; preds = %128
  br label %137

137:                                              ; preds = %136
  %138 = load ptr, ptr %15, align 8
  %139 = call ptr @expand_(ptr noundef %138, i64 noundef 8)
  store ptr %139, ptr %22, align 8
  %140 = load ptr, ptr %22, align 8
  store ptr %140, ptr %15, align 8
  %141 = load ptr, ptr %18, align 8
  %142 = load ptr, ptr %15, align 8
  %143 = load ptr, ptr %15, align 8
  store ptr %143, ptr %9, align 8
  %144 = load ptr, ptr %9, align 8
  %145 = icmp ne ptr %144, null
  br i1 %145, label %147, label %146

146:                                              ; preds = %137
  store i32 0, ptr %8, align 4
  br label %152

147:                                              ; preds = %137
  %148 = load ptr, ptr %9, align 8
  store ptr %148, ptr %10, align 8
  %149 = load ptr, ptr %10, align 8
  %150 = getelementptr inbounds %struct.VHeader_, ptr %149, i64 -1
  %151 = load i32, ptr %150, align 4
  store i32 %151, ptr %8, align 4
  br label %152

152:                                              ; preds = %147, %146
  %153 = load i32, ptr %8, align 4
  %154 = sub i32 %153, 1
  %155 = zext i32 %154 to i64
  %156 = getelementptr inbounds ptr, ptr %142, i64 %155
  store ptr %141, ptr %156, align 8
  br label %157

157:                                              ; preds = %152
  br label %174

158:                                              ; preds = %135, %127, %95, %59
  %159 = load ptr, ptr %18, align 8
  %160 = call zeroext i1 @file_is_dir(ptr noundef %159)
  br i1 %160, label %161, label %165

161:                                              ; preds = %158
  %162 = load ptr, ptr %18, align 8
  %163 = load ptr, ptr %12, align 8
  %164 = load i32, ptr %13, align 4
  call void @file_add_wildcard_files(ptr noundef %15, ptr noundef %162, i1 noundef zeroext true, ptr noundef %163, i32 noundef %164)
  br label %174

165:                                              ; preds = %158
  %166 = load i8, ptr %14, align 1
  %167 = trunc i8 %166 to i1
  br i1 %167, label %169, label %168

168:                                              ; preds = %165
  br label %174

169:                                              ; preds = %165
  %170 = load ptr, ptr %12, align 8
  %171 = getelementptr inbounds ptr, ptr %170, i64 0
  %172 = load ptr, ptr %171, align 8
  %173 = load ptr, ptr %18, align 8
  call void (ptr, ...) @error_exit(ptr noundef @.str.136, ptr noundef %172, ptr noundef %173) #8
  unreachable

174:                                              ; preds = %168, %161, %157, %123, %79
  %175 = load i32, ptr %16, align 4
  %176 = add i32 %175, 1
  store i32 %176, ptr %16, align 4
  br label %35, !llvm.loop !27

177:                                              ; preds = %35
  %178 = load ptr, ptr %15, align 8
  ret ptr %178
}