; Function Attrs: nounwind uwtable
define internal fastcc ptr @target_expand_source_names(ptr noundef readonly %0, ptr noundef %1, i32 noundef %2, i1 noundef zeroext %3) unnamed_addr #0 {
  %5 = alloca ptr, align 8
  store ptr null, ptr %5, align 8
  %.not = icmp eq ptr %0, null
  br i1 %.not, label %._crit_edge, label %6

6:                                                ; preds = %4
  %7 = getelementptr inbounds i8, ptr %0, i64 -8
  %8 = load i32, ptr %7, align 4
  %.not60 = icmp eq i32 %8, 0
  br i1 %.not60, label %._crit_edge, label %.lr.ph.preheader

.lr.ph.preheader:                                 ; preds = %6
  %wide.trip.count = zext i32 %8 to i64
  br label %.lr.ph

.lr.ph:                                           ; preds = %.lr.ph.preheader, %89
  %indvars.iv = phi i64 [ 0, %.lr.ph.preheader ], [ %indvars.iv.next, %89 ]
  %9 = getelementptr inbounds ptr, ptr %0, i64 %indvars.iv
  %10 = load ptr, ptr %9, align 8
  %11 = load i8, ptr @debug_log, align 1
  %12 = trunc i8 %11 to i1
  br i1 %12, label %13, label %16

13:                                               ; preds = %.lr.ph
  %14 = call i32 (ptr, ...) @printf(ptr noundef nonnull dereferenceable(1) @.str.3)
  %15 = call i32 (ptr, ...) @printf(ptr noundef nonnull dereferenceable(1) @.str.134, ptr noundef %10)
  %putchar = call i32 @putchar(i32 10)
  br label %16

16:                                               ; preds = %.lr.ph, %13
  %17 = call i64 @strlen(ptr noundef nonnull dereferenceable(1) %10) #22
  %18 = icmp eq i64 %17, 0
  br i1 %18, label %83, label %19

19:                                               ; preds = %16
  %20 = add i64 %17, -1
  %21 = getelementptr inbounds i8, ptr %10, i64 %20
  %22 = load i8, ptr %21, align 1
  %23 = icmp eq i8 %22, 42
  br i1 %23, label %24, label %47

24:                                               ; preds = %19
  %25 = icmp eq i64 %17, 1
  br i1 %25, label %30, label %26

26:                                               ; preds = %24
  %27 = add i64 %17, -2
  %28 = getelementptr inbounds i8, ptr %10, i64 %27
  %29 = load i8, ptr %28, align 1
  switch i8 %29, label %83 [
    i8 47, label %30
    i8 42, label %32
  ]

30:                                               ; preds = %26, %24
  %31 = call ptr @str_copy(ptr noundef nonnull %10, i64 noundef %20) #20
  call void @file_add_wildcard_files(ptr noundef nonnull %5, ptr noundef %31, i1 noundef zeroext false, ptr noundef %1, i32 noundef %2) #20
  br label %89

32:                                               ; preds = %26
  %33 = load i8, ptr @debug_log, align 1
  %34 = trunc i8 %33 to i1
  br i1 %34, label %35, label %38

35:                                               ; preds = %32
  %36 = call i32 (ptr, ...) @printf(ptr noundef nonnull dereferenceable(1) @.str.3)
  %37 = call i32 (ptr, ...) @printf(ptr noundef nonnull dereferenceable(1) @.str.135, ptr noundef nonnull %10)
  %putchar58 = call i32 @putchar(i32 10)
  br label %38

38:                                               ; preds = %32, %35
  %39 = icmp eq i64 %17, 2
  br i1 %39, label %45, label %40

40:                                               ; preds = %38
  %41 = getelementptr i8, ptr %10, i64 %17
  %42 = getelementptr i8, ptr %41, i64 -3
  %43 = load i8, ptr %42, align 1
  %44 = icmp eq i8 %43, 47
  br i1 %44, label %45, label %83

45:                                               ; preds = %40, %38
  %46 = call ptr @str_copy(ptr noundef nonnull %10, i64 noundef %27) #20
  call void @file_add_wildcard_files(ptr noundef nonnull %5, ptr noundef %46, i1 noundef zeroext true, ptr noundef %1, i32 noundef %2) #20
  br label %89

47:                                               ; preds = %19
  %48 = trunc i64 %17 to i32
  %49 = call zeroext i1 @file_has_suffix_in_list(ptr noundef nonnull %10, i32 noundef %48, ptr noundef %1, i32 noundef %2) #20
  br i1 %49, label %50, label %83

50:                                               ; preds = %47
  %51 = load ptr, ptr %5, align 8
  %.not.i = icmp eq ptr %51, null
  br i1 %.not.i, label %52, label %55

52:                                               ; preds = %50
  %53 = call ptr @calloc_arena(i64 noundef 72) #20
  %54 = getelementptr inbounds i8, ptr %53, i64 4
  store i32 8, ptr %54, align 4
  br label %57

55:                                               ; preds = %50
  %56 = getelementptr inbounds i8, ptr %51, i64 -8
  %.phi.trans.insert.i = getelementptr inbounds i8, ptr %51, i64 -4
  %.pre.i = load i32, ptr %.phi.trans.insert.i, align 4
  br label %57

57:                                               ; preds = %55, %52
  %58 = phi i32 [ %.pre.i, %55 ], [ 8, %52 ]
  %.0.i = phi ptr [ %56, %55 ], [ %53, %52 ]
  %59 = load i32, ptr %.0.i, align 4
  %60 = icmp eq i32 %59, %58
  br i1 %60, label %61, label %75

61:                                               ; preds = %57
  %62 = getelementptr inbounds i8, ptr %.0.i, i64 4
  %63 = shl i32 %58, 1
  %64 = zext i32 %63 to i64
  %65 = shl nuw nsw i64 %64, 3
  %66 = or disjoint i64 %65, 8
  %67 = call ptr @calloc_arena(i64 noundef %66) #20
  %68 = getelementptr inbounds i8, ptr %67, i64 4
  store i32 %63, ptr %68, align 4
  %69 = load i32, ptr %62, align 4
  %70 = zext i32 %69 to i64
  %71 = shl nuw nsw i64 %70, 3
  %72 = add nuw nsw i64 %71, 8
  call void @llvm.memcpy.p0.p0.i64(ptr noundef nonnull align 4 dereferenceable(1) %67, ptr noundef nonnull align 4 dereferenceable(1) %.0.i, i64 %72, i1 false)
  %73 = load i32, ptr %68, align 4
  %74 = shl i32 %73, 1
  store i32 %74, ptr %68, align 4
  %.pre18.i = load i32, ptr %67, align 4
  br label %75

75:                                               ; preds = %57, %61
  %76 = phi i32 [ %.pre18.i, %61 ], [ %59, %57 ]
  %.1.i = phi ptr [ %67, %61 ], [ %.0.i, %57 ]
  %77 = add i32 %76, 1
  store i32 %77, ptr %.1.i, align 4
  %78 = getelementptr inbounds i8, ptr %.1.i, i64 8
  store ptr %78, ptr %5, align 8
  %79 = load i32, ptr %.1.i, align 4
  %80 = add i32 %79, -1
  %81 = zext i32 %80 to i64
  %82 = getelementptr inbounds ptr, ptr %78, i64 %81
  store ptr %10, ptr %82, align 8
  br label %89

83:                                               ; preds = %26, %47, %40, %16
  %84 = call zeroext i1 @file_is_dir(ptr noundef %10) #20
  br i1 %84, label %85, label %86

85:                                               ; preds = %83
  call void @file_add_wildcard_files(ptr noundef nonnull %5, ptr noundef %10, i1 noundef zeroext true, ptr noundef %1, i32 noundef %2) #20
  br label %89

86:                                               ; preds = %83
  br i1 %3, label %87, label %89

87:                                               ; preds = %86
  %88 = load ptr, ptr %1, align 8
  call void (ptr, ...) @error_exit(ptr noundef nonnull @.str.136, ptr noundef %88, ptr noundef %10) #21
  unreachable

89:                                               ; preds = %86, %85, %75, %45, %30
  %indvars.iv.next = add nuw nsw i64 %indvars.iv, 1
  %exitcond.not = icmp eq i64 %indvars.iv.next, %wide.trip.count
  br i1 %exitcond.not, label %._crit_edge.loopexit, label %.lr.ph, !llvm.loop !30

._crit_edge.loopexit:                             ; preds = %89
  %.pre = load ptr, ptr %5, align 8
  br label %._crit_edge

._crit_edge:                                      ; preds = %4, %._crit_edge.loopexit, %6
  %90 = phi ptr [ %.pre, %._crit_edge.loopexit ], [ null, %6 ], [ null, %4 ]
  ret ptr %90
}